; Function Attrs: nounwind uwtable
define void @lv_obj_set_state(ptr noundef %0, i16 noundef zeroext %1, i1 noundef zeroext %2) local_unnamed_addr #0 {
  %.not.i = icmp eq ptr %0, null
  br i1 %2, label %4, label %9

4:                                                ; preds = %3
  br i1 %.not.i, label %.preheader.i, label %5

.preheader.i:                                     ; preds = %4, %.preheader.i
  br label %.preheader.i

5:                                                ; preds = %4
  %6 = getelementptr inbounds nuw i8, ptr %0, i64 60
  %7 = load i16, ptr %6, align 4, !tbaa !31
  %8 = or i16 %7, %1
  %.not6.i = icmp eq i16 %7, %8
  br i1 %.not6.i, label %lv_obj_add_state.exit, label %lv_obj_add_state.exit.sink.split

9:                                                ; preds = %3
  br i1 %.not.i, label %.preheader.i6, label %10

.preheader.i6:                                    ; preds = %9, %.preheader.i6
  br label %.preheader.i6

10:                                               ; preds = %9
  %11 = getelementptr inbounds nuw i8, ptr %0, i64 60
  %12 = load i16, ptr %11, align 4, !tbaa !31
  %13 = xor i16 %1, -1
  %14 = and i16 %12, %13
  %.not6.i5 = icmp eq i16 %12, %14
  br i1 %.not6.i5, label %lv_obj_add_state.exit, label %lv_obj_add_state.exit.sink.split

lv_obj_add_state.exit.sink.split:                 ; preds = %10, %5
  %.sink = phi i16 [ %8, %5 ], [ %14, %10 ]
  tail call fastcc void @update_obj_state(ptr noundef %0, i16 noundef zeroext %.sink)
  br label %lv_obj_add_state.exit

lv_obj_add_state.exit:                            ; preds = %lv_obj_add_state.exit.sink.split, %10, %5
  ret void
}